; Function Attrs: mustprogress nofree norecurse nosync nounwind willreturn memory(argmem: readwrite, inaccessiblemem: write) uwtable
define void @_ZN2cv4gapi3wip6onevpl21DataProviderExceptionC2EONSt7__cxx1112basic_stringIcSt11char_traitsIcESaIcEEE(ptr noundef nonnull align 8 dereferenceable(40) initializes((0, 8)) %0, ptr noundef nonnull align 8 dereferenceable(32) %1) unnamed_addr #2 align 2 personality ptr @__gxx_personality_v0 {
  store ptr getelementptr inbounds nuw inrange(-16, 24) (i8, ptr @_ZTVN2cv4gapi3wip6onevpl21DataProviderExceptionE, i64 16), ptr %0, align 8, !tbaa !3
  %3 = getelementptr inbounds nuw i8, ptr %0, i64 8
  %4 = getelementptr inbounds nuw i8, ptr %0, i64 24
  store ptr %4, ptr %3, align 8, !tbaa !6
  %5 = load ptr, ptr %1, align 8, !tbaa !11
  %6 = getelementptr inbounds nuw i8, ptr %1, i64 16
  %7 = icmp eq ptr %5, %6
  br i1 %7, label %8, label %_ZNKSt7__cxx1112basic_stringIcSt11char_traitsIcESaIcEE11_M_is_localEv.exit.i

8:                                                ; preds = %2
  %9 = getelementptr inbounds nuw i8, ptr %1, i64 8
  %10 = load i64, ptr %9, align 8, !tbaa !14
  %11 = icmp ult i64 %10, 16
  tail call void @llvm.assume(i1 %11)
  %12 = add nuw nsw i64 %10, 1
  tail call void @llvm.memcpy.p0.p0.i64(ptr noundef nonnull align 8 dereferenceable(1) %4, ptr noundef nonnull align 8 dereferenceable(1) %6, i64 %12, i1 false)
  br label %_ZNSt7__cxx1112basic_stringIcSt11char_traitsIcESaIcEEC2EOS4_.exit

_ZNKSt7__cxx1112basic_stringIcSt11char_traitsIcESaIcEE11_M_is_localEv.exit.i: ; preds = %2
  store ptr %5, ptr %3, align 8, !tbaa !11
  %13 = load i64, ptr %6, align 8, !tbaa !16
  store i64 %13, ptr %4, align 8, !tbaa !16
  br label %_ZNSt7__cxx1112basic_stringIcSt11char_traitsIcESaIcEEC2EOS4_.exit

_ZNSt7__cxx1112basic_stringIcSt11char_traitsIcESaIcEEC2EOS4_.exit: ; preds = %8, %_ZNKSt7__cxx1112basic_stringIcSt11char_traitsIcESaIcEE11_M_is_localEv.exit.i
  %14 = getelementptr inbounds nuw i8, ptr %1, i64 8
  %15 = load i64, ptr %14, align 8, !tbaa !14
  %16 = getelementptr inbounds nuw i8, ptr %0, i64 16
  store i64 %15, ptr %16, align 8, !tbaa !14
  store ptr %6, ptr %1, align 8, !tbaa !11
  store i64 0, ptr %14, align 8, !tbaa !14
  store i8 0, ptr %6, align 8, !tbaa !16
  ret void
}